target datalayout = "e-m:e-p270:32:32-p271:32:32-p272:64:64-i64:64-i128:128-f80:128-n8:16:32:64-S128"
target triple = "x86_64-pc-linux-gnu"

%struct.timeval = type { i64, i64 }

@filename = internal global ptr @.str.1, align 8
@secs_per_test = internal global i32 5, align 4
@buf = internal global ptr null, align 8
@.str.19 = private unnamed_addr constant [7 x i8] c"%s: %m\00", align 1
@.str.21 = private unnamed_addr constant [13 x i8] c"write failed\00", align 1
@.str.26 = private unnamed_addr constant [14 x i8] c"        %-30s\00", align 1
@stdout = external global ptr, align 8
@.str.28 = private unnamed_addr constant [6 x i8] c"%21s\0A\00", align 1
@.str.29 = private unnamed_addr constant [5 x i8] c"n/a*\00", align 1
@alarm_triggered = internal global i32 0, align 4
@start_t = internal global %struct.timeval zeroinitializer, align 8
@stop_t = internal global %struct.timeval zeroinitializer, align 8
@.str.36 = private unnamed_addr constant [32 x i8] c"%13.3f ops/sec  %6.0f usecs/op\0A\00", align 1

; Function Attrs: nounwind uwtable
define internal void @print_elapse(i64 %0, i64 %1, i64 %2, i64 %3, i32 noundef %4) #0 {
  %6 = alloca %struct.timeval, align 8
  %7 = alloca %struct.timeval, align 8
  %8 = alloca i32, align 4
  %9 = alloca double, align 8
  %10 = alloca double, align 8
  %11 = alloca double, align 8
  %12 = getelementptr inbounds nuw { i64, i64 }, ptr %6, i32 0, i32 0
  store i64 %0, ptr %12, align 8
  %13 = getelementptr inbounds nuw { i64, i64 }, ptr %6, i32 0, i32 1
  store i64 %1, ptr %13, align 8
  %14 = getelementptr inbounds nuw { i64, i64 }, ptr %7, i32 0, i32 0
  store i64 %2, ptr %14, align 8
  %15 = getelementptr inbounds nuw { i64, i64 }, ptr %7, i32 0, i32 1
  store i64 %3, ptr %15, align 8
  store i32 %4, ptr %8, align 4
  call void @llvm.lifetime.start.p0(i64 8, ptr %9) #9
  %16 = getelementptr inbounds nuw %struct.timeval, ptr %7, i32 0, i32 0
  %17 = load i64, ptr %16, align 8
  %18 = getelementptr inbounds nuw %struct.timeval, ptr %6, i32 0, i32 0
  %19 = load i64, ptr %18, align 8
  %20 = sub i64 %17, %19
  %21 = sitofp i64 %20 to double
  %22 = getelementptr inbounds nuw %struct.timeval, ptr %7, i32 0, i32 1
  %23 = load i64, ptr %22, align 8
  %24 = getelementptr inbounds nuw %struct.timeval, ptr %6, i32 0, i32 1
  %25 = load i64, ptr %24, align 8
  %26 = sub i64 %23, %25
  %27 = sitofp i64 %26 to double
  %28 = call double @llvm.fmuladd.f64(double %27, double 0x3EB0C6F7A0B5ED8D, double %21)
  store double %28, ptr %9, align 8
  call void @llvm.lifetime.start.p0(i64 8, ptr %10) #9
  %29 = load i32, ptr %8, align 4
  %30 = sitofp i32 %29 to double
  %31 = load double, ptr %9, align 8
  %32 = fdiv double %30, %31
  store double %32, ptr %10, align 8
  call void @llvm.lifetime.start.p0(i64 8, ptr %11) #9
  %33 = load double, ptr %9, align 8
  %34 = load i32, ptr %8, align 4
  %35 = sitofp i32 %34 to double
  %36 = fdiv double %33, %35
  %37 = fmul double %36, 1.000000e+06
  store double %37, ptr %11, align 8
  %38 = load double, ptr %10, align 8
  %39 = load double, ptr %11, align 8
  %40 = call i32 (ptr, ...) @pg_printf(ptr noundef @.str.36, double noundef %38, double noundef %39)
  call void @llvm.lifetime.end.p0(i64 8, ptr %11) #9
  call void @llvm.lifetime.end.p0(i64 8, ptr %10) #9
  call void @llvm.lifetime.end.p0(i64 8, ptr %9) #9
  ret void
}

; Function Attrs: nounwind uwtable
define internal i32 @open_direct(ptr noundef %0, i32 noundef %1, i32 noundef %2) #0 {
  %4 = alloca ptr, align 8
  %5 = alloca i32, align 4
  %6 = alloca i32, align 4
  %7 = alloca i32, align 4
  store ptr %0, ptr %4, align 8
  store i32 %1, ptr %5, align 4
  store i32 %2, ptr %6, align 4
  call void @llvm.lifetime.start.p0(i64 4, ptr %7) #9
  %8 = load i32, ptr %5, align 4
  %9 = or i32 %8, 16384
  store i32 %9, ptr %5, align 4
  %10 = load ptr, ptr %4, align 8
  %11 = load i32, ptr %5, align 4
  %12 = load i32, ptr %6, align 4
  %13 = call i32 (ptr, i32, ...) @open(ptr noundef %10, i32 noundef %11, i32 noundef %12)
  store i32 %13, ptr %7, align 4
  %14 = load i32, ptr %7, align 4
  call void @llvm.lifetime.end.p0(i64 4, ptr %7) #9
  ret i32 %14
}

; Function Attrs: nounwind uwtable
define internal void @test_open_sync(ptr noundef %0, i32 noundef %1) #0 {
  %3 = alloca ptr, align 8
  %4 = alloca i32, align 4
  %5 = alloca i32, align 4
  %6 = alloca i32, align 4
  %7 = alloca i32, align 4
  store ptr %0, ptr %3, align 8
  store i32 %1, ptr %4, align 4
  call void @llvm.lifetime.start.p0(i64 4, ptr %5) #9
  call void @llvm.lifetime.start.p0(i64 4, ptr %6) #9
  call void @llvm.lifetime.start.p0(i64 4, ptr %7) #9
  %8 = load ptr, ptr %3, align 8
  %9 = call i32 (ptr, ...) @pg_printf(ptr noundef @.str.26, ptr noundef %8)
  %10 = load ptr, ptr @stdout, align 8
  %11 = call i32 @fflush(ptr noundef %10)
  %12 = load ptr, ptr @filename, align 8
  %13 = call i32 @open_direct(ptr noundef %12, i32 noundef 1052674, i32 noundef 0)
  store i32 %13, ptr %5, align 4
  %14 = icmp eq i32 %13, -1
  br i1 %14, label %15, label %17

15:                                               ; preds = %2
  %16 = call i32 (ptr, ...) @pg_printf(ptr noundef @.str.28, ptr noundef @.str.29)
  br label %73

17:                                               ; preds = %2
  br label %18

18:                                               ; preds = %17
  store i32 0, ptr @alarm_triggered, align 4
  %19 = load i32, ptr @secs_per_test, align 4
  %20 = call i32 @alarm(i32 noundef %19) #9
  %21 = call i32 @gettimeofday(ptr noundef @start_t, ptr noundef null) #9
  br label %22

22:                                               ; preds = %18
  br label %23

23:                                               ; preds = %22
  store i32 0, ptr %6, align 4
  br label %24

24:                                               ; preds = %58, %23
  %25 = load i32, ptr @alarm_triggered, align 4
  %26 = icmp eq i32 %25, 0
  br i1 %26, label %27, label %61

27:                                               ; preds = %24
  store i32 0, ptr %7, align 4
  br label %28

28:                                               ; preds = %54, %27
  %29 = load i32, ptr %7, align 4
  %30 = load i32, ptr %4, align 4
  %31 = sdiv i32 16, %30
  %32 = icmp slt i32 %29, %31
  br i1 %32, label %33, label %57

33:                                               ; preds = %28
  %34 = load i32, ptr %5, align 4
  %35 = load ptr, ptr @buf, align 8
  %36 = load i32, ptr %4, align 4
  %37 = mul i32 %36, 1024
  %38 = sext i32 %37 to i64
  %39 = load i32, ptr %7, align 4
  %40 = load i32, ptr %4, align 4
  %41 = mul i32 %39, %40
  %42 = mul i32 %41, 1024
  %43 = sext i32 %42 to i64
  %44 = call i64 @pwrite(i32 noundef %34, ptr noundef %35, i64 noundef %38, i64 noundef %43)
  %45 = load i32, ptr %4, align 4
  %46 = mul i32 %45, 1024
  %47 = sext i32 %46 to i64
  %48 = icmp ne i64 %44, %47
  br i1 %48, label %49, label %53

49:                                               ; preds = %33
  br label %50

50:                                               ; preds = %49
  call void (i32, i32, ptr, ...) @pg_log_generic(i32 noundef 4, i32 noundef 0, ptr noundef @.str.19, ptr noundef @.str.21)
  call void @exit(i32 noundef 1) #11
  unreachable

51:                                               ; No predecessors!
  br label %52

52:                                               ; preds = %51
  br label %53

53:                                               ; preds = %52, %33
  br label %54

54:                                               ; preds = %53
  %55 = load i32, ptr %7, align 4
  %56 = add i32 %55, 1
  store i32 %56, ptr %7, align 4
  br label %28, !llvm.loop !20

57:                                               ; preds = %28
  br label %58

58:                                               ; preds = %57
  %59 = load i32, ptr %6, align 4
  %60 = add i32 %59, 1
  store i32 %60, ptr %6, align 4
  br label %24, !llvm.loop !21

61:                                               ; preds = %24
  br label %62

62:                                               ; preds = %61
  %63 = call i32 @gettimeofday(ptr noundef @stop_t, ptr noundef null) #9
  %64 = load i32, ptr %6, align 4
  %65 = load i64, ptr @start_t, align 8
  %66 = load i64, ptr getelementptr inbounds nuw ({ i64, i64 }, ptr @start_t, i32 0, i32 1), align 8
  %67 = load i64, ptr @stop_t, align 8
  %68 = load i64, ptr getelementptr inbounds nuw ({ i64, i64 }, ptr @stop_t, i32 0, i32 1), align 8
  call void @print_elapse(i64 %65, i64 %66, i64 %67, i64 %68, i32 noundef %64)
  br label %69

69:                                               ; preds = %62
  br label %70

70:                                               ; preds = %69
  %71 = load i32, ptr %5, align 4
  %72 = call i32 @close(i32 noundef %71)
  br label %73

73:                                               ; preds = %70, %15
  call void @llvm.lifetime.end.p0(i64 4, ptr %7) #9
  call void @llvm.lifetime.end.p0(i64 4, ptr %6) #9
  call void @llvm.lifetime.end.p0(i64 4, ptr %5) #9
  ret void
}