; Function Attrs: nounwind uwtable
define internal fastcc void @test_open_sync(ptr noundef %0, i32 noundef range(i32 1, 17) %1) unnamed_addr #0 {
  %3 = tail call i32 (ptr, ...) @pg_printf(ptr noundef nonnull @.str.26, ptr noundef %0) #14
  %4 = load ptr, ptr @stdout, align 8
  %5 = tail call i32 @fflush(ptr noundef %4)
  %6 = load ptr, ptr @filename, align 8
  %7 = tail call noundef i32 (ptr, i32, ...) @open(ptr noundef readonly %6, i32 noundef 1069058, i32 noundef 0) #14
  %8 = icmp eq i32 %7, -1
  br i1 %8, label %9, label %11

9:                                                ; preds = %2
  %10 = tail call i32 (ptr, ...) @pg_printf(ptr noundef nonnull @.str.28, ptr noundef nonnull @.str.29) #14
  br label %41

11:                                               ; preds = %2
  store i1 false, ptr @alarm_triggered, align 4
  %12 = load i32, ptr @secs_per_test, align 4
  %13 = tail call i32 @alarm(i32 noundef %12) #14
  %14 = tail call i32 @gettimeofday(ptr noundef nonnull @start_t, ptr noundef null) #14
  %.b15 = load i1, ptr @alarm_triggered, align 4
  br i1 %.b15, label %._crit_edge17, label %.preheader.us.preheader

.preheader.us.preheader:                          ; preds = %11
  %.rhs.trunc = trunc nuw nsw i32 %1 to i8
  %15 = udiv i8 16, %.rhs.trunc
  %16 = shl nuw nsw i32 %1, 10
  %17 = zext nneg i32 %16 to i64
  %18 = zext nneg i32 %16 to i64
  %wide.trip.count = zext nneg i8 %15 to i64
  br label %.preheader.us

.preheader.us:                                    ; preds = %.preheader.us.preheader, %._crit_edge.us
  %.01116.us = phi i32 [ %24, %._crit_edge.us ], [ 0, %.preheader.us.preheader ]
  br label %20

19:                                               ; preds = %20
  %indvars.iv.next = add nuw nsw i64 %indvars.iv, 1
  %exitcond.not = icmp eq i64 %indvars.iv.next, %wide.trip.count
  br i1 %exitcond.not, label %._crit_edge.us, label %20, !llvm.loop !18

20:                                               ; preds = %.preheader.us, %19
  %indvars.iv = phi i64 [ 0, %.preheader.us ], [ %indvars.iv.next, %19 ]
  %21 = load ptr, ptr @buf, align 8
  %22 = mul nuw nsw i64 %indvars.iv, %18
  %23 = tail call i64 @pwrite(i32 noundef %7, ptr noundef %21, i64 noundef %17, i64 noundef %22) #14
  %.not.us = icmp eq i64 %23, %17
  br i1 %.not.us, label %19, label %.split.us

._crit_edge.us:                                   ; preds = %19
  %24 = add i32 %.01116.us, 1
  %.b.us = load i1, ptr @alarm_triggered, align 4
  br i1 %.b.us, label %._crit_edge17.loopexit, label %.preheader.us, !llvm.loop !19

.split.us:                                        ; preds = %20
  tail call void (i32, i32, ptr, ...) @pg_log_generic(i32 noundef 4, i32 noundef 0, ptr noundef nonnull @.str.19, ptr noundef nonnull @.str.21) #14
  tail call void @exit(i32 noundef 1) #18
  unreachable

._crit_edge17.loopexit:                           ; preds = %._crit_edge.us
  %25 = sitofp i32 %24 to double
  br label %._crit_edge17

._crit_edge17:                                    ; preds = %._crit_edge17.loopexit, %11
  %.011.lcssa = phi double [ 0.000000e+00, %11 ], [ %25, %._crit_edge17.loopexit ]
  %26 = tail call i32 @gettimeofday(ptr noundef nonnull @stop_t, ptr noundef null) #14
  %27 = load i64, ptr @start_t, align 8
  %28 = load i64, ptr getelementptr inbounds nuw (i8, ptr @start_t, i64 8), align 8
  %29 = load i64, ptr @stop_t, align 8
  %30 = load i64, ptr getelementptr inbounds nuw (i8, ptr @stop_t, i64 8), align 8
  %31 = sub i64 %29, %27
  %32 = sitofp i64 %31 to double
  %33 = sub i64 %30, %28
  %34 = sitofp i64 %33 to double
  %35 = tail call double @llvm.fmuladd.f64(double %34, double 0x3EB0C6F7A0B5ED8D, double %32)
  %36 = fdiv double %.011.lcssa, %35
  %37 = fdiv double %35, %.011.lcssa
  %38 = fmul double %37, 1.000000e+06
  %39 = tail call i32 (ptr, ...) @pg_printf(ptr noundef nonnull @.str.36, double noundef %36, double noundef %38) #14
  %40 = tail call i32 @close(i32 noundef %7) #14
  br label %41

41:                                               ; preds = %._crit_edge17, %9
  ret void
}